; Function Attrs: mustprogress uwtable
define void @_ZN4LIEF5MachO18ChainedBindingInfo4swapERS1_(ptr noundef nonnull align 8 dereferenceable(88) %0, ptr noundef nonnull align 8 dereferenceable(88) %1) local_unnamed_addr #0 align 2 {
  tail call void @_ZN4LIEF5MachO11BindingInfo4swapERS1_(ptr noundef nonnull align 8 dereferenceable(64) %0, ptr noundef nonnull align 8 dereferenceable(64) %1)
  %3 = getelementptr inbounds i8, ptr %0, i64 64
  %4 = getelementptr inbounds i8, ptr %1, i64 64
  %5 = load i32, ptr %3, align 8
  %6 = load i32, ptr %4, align 8
  store i32 %6, ptr %3, align 8
  store i32 %5, ptr %4, align 8
  %7 = getelementptr inbounds i8, ptr %0, i64 68
  %8 = getelementptr inbounds i8, ptr %1, i64 68
  %9 = load i32, ptr %7, align 4
  %10 = load i32, ptr %8, align 4
  store i32 %10, ptr %7, align 4
  store i32 %9, ptr %8, align 4
  %11 = getelementptr inbounds i8, ptr %0, i64 72
  %12 = getelementptr inbounds i8, ptr %1, i64 72
  %13 = load i32, ptr %11, align 8
  %14 = load i32, ptr %12, align 8
  store i32 %14, ptr %11, align 8
  store i32 %13, ptr %12, align 8
  %15 = getelementptr inbounds i8, ptr %0, i64 76
  %16 = getelementptr inbounds i8, ptr %1, i64 76
  %17 = load i32, ptr %15, align 4
  %18 = load i32, ptr %16, align 4
  store i32 %18, ptr %15, align 4
  store i32 %17, ptr %16, align 4
  ret void
}